; ModuleID = '49/925.c'
source_filename = "49/925.c"
target datalayout = "e-m:e-p270:32:32-p271:32:32-p272:64:64-i64:64-f80:128-n8:16:32:64-S128"
target triple = "x86_64-pc-linux-gnu"

@.str = private unnamed_addr constant [3 x i8] c"%c\00", align 1
@.str.1 = private unnamed_addr constant [2 x i8] c"\0A\00", align 1

; Function Attrs: noinline nounwind uwtable
define dso_local void @main() #0 {
  %1 = alloca i32, align 4
  %2 = alloca i32, align 4
  %3 = alloca [1000 x i8], align 16
  %4 = getelementptr inbounds [1000 x i8], [1000 x i8]* %3, i64 0, i64 0
  %5 = call i32 (i8*, ...) bitcast (i32 (...)* @gets to i32 (i8*, ...)*)(i8* %4)
  store i32 2, i32* %1, align 4
  br label %6

6:                                                ; preds = %15, %0
  %7 = load i32, i32* %1, align 4
  %8 = sext i32 %7 to i64
  %9 = getelementptr inbounds [1000 x i8], [1000 x i8]* %3, i64 0, i64 0
  %10 = call i64 @strlen(i8* %9) #3
  %11 = icmp ule i64 %8, %10
  br i1 %11, label %12, label %18

12:                                               ; preds = %6
  %13 = getelementptr inbounds [1000 x i8], [1000 x i8]* %3, i64 0, i64 0
  %14 = load i32, i32* %1, align 4
  call void @huiwen(i8* %13, i32 %14)
  br label %15

15:                                               ; preds = %12
  %16 = load i32, i32* %1, align 4
  %17 = add nsw i32 %16, 1
  store i32 %17, i32* %1, align 4
  br label %6

18:                                               ; preds = %6
  ret void
}

declare dso_local i32 @gets(...) #1

; Function Attrs: nounwind readonly
declare dso_local i64 @strlen(i8*) #2

; Function Attrs: noinline nounwind uwtable
define dso_local void @huiwen(i8* %0, i32 %1) #0 {
  %3 = alloca i8*, align 8
  %4 = alloca i32, align 4
  %5 = alloca i32, align 4
  %6 = alloca i32, align 4
  %7 = alloca i32, align 4
  %8 = alloca i32, align 4
  %9 = alloca i8*, align 8
  store i8* %0, i8** %3, align 8
  store i32 %1, i32* %4, align 4
  store i32 0, i32* %7, align 4
  %10 = load i8*, i8** %3, align 8
  store i8* %10, i8** %9, align 8
  store i32 0, i32* %5, align 4
  br label %11

11:                                               ; preds = %81, %2
  %12 = load i32, i32* %5, align 4
  %13 = sext i32 %12 to i64
  %14 = load i8*, i8** %3, align 8
  %15 = call i64 @strlen(i8* %14) #3
  %16 = load i32, i32* %4, align 4
  %17 = sext i32 %16 to i64
  %18 = sub i64 %15, %17
  %19 = icmp ule i64 %13, %18
  br i1 %19, label %20, label %84

20:                                               ; preds = %11
  store i32 0, i32* %6, align 4
  br label %21

21:                                               ; preds = %53, %20
  %22 = load i32, i32* %6, align 4
  %23 = load i32, i32* %4, align 4
  %24 = sdiv i32 %23, 2
  %25 = icmp sle i32 %22, %24
  br i1 %25, label %26, label %56

26:                                               ; preds = %21
  %27 = load i8*, i8** %9, align 8
  %28 = load i32, i32* %5, align 4
  %29 = sext i32 %28 to i64
  %30 = getelementptr inbounds i8, i8* %27, i64 %29
  %31 = load i32, i32* %6, align 4
  %32 = sext i32 %31 to i64
  %33 = getelementptr inbounds i8, i8* %30, i64 %32
  %34 = load i8, i8* %33, align 1
  %35 = sext i8 %34 to i32
  %36 = load i8*, i8** %9, align 8
  %37 = load i32, i32* %5, align 4
  %38 = sext i32 %37 to i64
  %39 = getelementptr inbounds i8, i8* %36, i64 %38
  %40 = load i32, i32* %4, align 4
  %41 = sext i32 %40 to i64
  %42 = getelementptr inbounds i8, i8* %39, i64 %41
  %43 = load i32, i32* %6, align 4
  %44 = sext i32 %43 to i64
  %45 = sub i64 0, %44
  %46 = getelementptr inbounds i8, i8* %42, i64 %45
  %47 = getelementptr inbounds i8, i8* %46, i64 -1
  %48 = load i8, i8* %47, align 1
  %49 = sext i8 %48 to i32
  %50 = icmp ne i32 %35, %49
  br i1 %50, label %51, label %52

51:                                               ; preds = %26
  store i32 1, i32* %7, align 4
  br label %56

52:                                               ; preds = %26
  br label %53

53:                                               ; preds = %52
  %54 = load i32, i32* %6, align 4
  %55 = add nsw i32 %54, 1
  store i32 %55, i32* %6, align 4
  br label %21

56:                                               ; preds = %51, %21
  %57 = load i32, i32* %7, align 4
  %58 = icmp eq i32 %57, 0
  br i1 %58, label %59, label %80

59:                                               ; preds = %56
  store i32 0, i32* %8, align 4
  br label %60

60:                                               ; preds = %75, %59
  %61 = load i32, i32* %8, align 4
  %62 = load i32, i32* %4, align 4
  %63 = icmp slt i32 %61, %62
  br i1 %63, label %64, label %78

64:                                               ; preds = %60
  %65 = load i8*, i8** %9, align 8
  %66 = load i32, i32* %5, align 4
  %67 = sext i32 %66 to i64
  %68 = getelementptr inbounds i8, i8* %65, i64 %67
  %69 = load i32, i32* %8, align 4
  %70 = sext i32 %69 to i64
  %71 = getelementptr inbounds i8, i8* %68, i64 %70
  %72 = load i8, i8* %71, align 1
  %73 = sext i8 %72 to i32
  %74 = call i32 (i8*, ...) @printf(i8* getelementptr inbounds ([3 x i8], [3 x i8]* @.str, i64 0, i64 0), i32 %73)
  br label %75

75:                                               ; preds = %64
  %76 = load i32, i32* %8, align 4
  %77 = add nsw i32 %76, 1
  store i32 %77, i32* %8, align 4
  br label %60

78:                                               ; preds = %60
  %79 = call i32 (i8*, ...) @printf(i8* getelementptr inbounds ([2 x i8], [2 x i8]* @.str.1, i64 0, i64 0))
  br label %80

80:                                               ; preds = %78, %56
  store i32 0, i32* %7, align 4
  br label %81

81:                                               ; preds = %80
  %82 = load i32, i32* %5, align 4
  %83 = add nsw i32 %82, 1
  store i32 %83, i32* %5, align 4
  br label %11

84:                                               ; preds = %11
  ret void
}

declare dso_local i32 @printf(i8*, ...) #1


!llvm.module.flags = !{!0}
!llvm.ident = !{!1}

!0 = !{i32 1, !"wchar_size", i32 4}
!1 = !{!"clang version 10.0.0-4ubuntu1 "}
